; Function Attrs: mustprogress uwtable
define void @_ZN5arrow8internal16SetSignalHandlerEiRKNS0_13SignalHandlerE(ptr dead_on_unwind noalias writable sret(%"class.arrow::Result.85") align 8 %0, i32 noundef %1, ptr noundef nonnull align 8 dereferenceable(152) %2) local_unnamed_addr #3 {
  %4 = alloca %struct.sigaction, align 8
  %5 = alloca %"class.arrow::Status", align 8
  call void @llvm.lifetime.start.p0(i64 152, ptr nonnull %4) #38
  %6 = call i32 @sigaction(i32 noundef %1, ptr noundef nonnull %2, ptr noundef nonnull %4) #38
  %.not = icmp eq i32 %6, 0
  br i1 %.not, label %14, label %7

7:                                                ; preds = %3
  call void @llvm.lifetime.start.p0(i64 8, ptr nonnull %5) #38
  call void @_ZN5arrow6Status8FromArgsIJRA22_KcEEES0_NS_10StatusCodeEDpOT_(ptr dead_on_unwind nonnull writable sret(%"class.arrow::Status") align 8 %5, i8 noundef signext 5, ptr noundef nonnull align 1 dereferenceable(22) @.str.25)
  call void @_ZN5arrow6ResultINS_8internal13SignalHandlerEEC2ERKNS_6StatusE(ptr noundef nonnull align 8 dereferenceable(160) %0, ptr noundef nonnull align 8 dereferenceable(8) %5) #38
  %8 = load ptr, ptr %5, align 8, !tbaa !89
  %.not.i = icmp eq ptr %8, null
  br i1 %.not.i, label %_ZN5arrow6StatusD2Ev.exit, label %9, !prof !92

9:                                                ; preds = %7
  %10 = getelementptr inbounds nuw i8, ptr %8, i64 1
  %11 = load i8, ptr %10, align 1, !tbaa !93, !range !98, !noundef !99
  %12 = trunc nuw i8 %11 to i1
  br i1 %12, label %_ZN5arrow6StatusD2Ev.exit, label %13

13:                                               ; preds = %9
  call void @_ZN5arrow6Status11DeleteStateEv(ptr noundef nonnull align 8 dereferenceable(8) %5) #38
  br label %_ZN5arrow6StatusD2Ev.exit

_ZN5arrow6StatusD2Ev.exit:                        ; preds = %7, %9, %13
  call void @llvm.lifetime.end.p0(i64 8, ptr nonnull %5) #38
  br label %16

14:                                               ; preds = %3
  %15 = getelementptr inbounds nuw i8, ptr %0, i64 8
  call void @_ZN5arrow8internal13SignalHandlerC1ERK9sigaction(ptr noundef nonnull align 8 dereferenceable(152) %15, ptr noundef nonnull align 8 dereferenceable(152) %4)
  store ptr null, ptr %0, align 8, !tbaa !89
  br label %16

16:                                               ; preds = %14, %_ZN5arrow6StatusD2Ev.exit
  call void @llvm.lifetime.end.p0(i64 152, ptr nonnull %4) #38
  ret void
}